target datalayout = "e-m:e-p270:32:32-p271:32:32-p272:64:64-i64:64-i128:128-f80:128-n8:16:32:64-S128"
target triple = "x86_64-pc-linux-gnu"

%struct.tm = type { i32, i32, i32, i32, i32, i32, i32, i32, i32, i64, ptr }

; Function Attrs: nounwind uwtable
define dso_local i32 @ASN1_TIME_to_tm(ptr noundef %0, ptr noundef %1) #0 {
  %3 = alloca i32, align 4
  %4 = alloca ptr, align 8
  %5 = alloca ptr, align 8
  %6 = alloca i64, align 8
  %7 = alloca i32, align 4
  store ptr %0, ptr %4, align 8, !tbaa !13
  store ptr %1, ptr %5, align 8, !tbaa !15
  %8 = load ptr, ptr %4, align 8, !tbaa !13
  %9 = icmp eq ptr %8, null
  br i1 %9, label %10, label %19

10:                                               ; preds = %2
  call void @llvm.lifetime.start.p0(i64 8, ptr %6) #7
  %11 = call i64 @time(ptr noundef %6) #7
  %12 = load ptr, ptr %5, align 8, !tbaa !15
  call void @llvm.memset.p0.i64(ptr align 8 %12, i8 0, i64 56, i1 false)
  %13 = load ptr, ptr %5, align 8, !tbaa !15
  %14 = call ptr @OPENSSL_gmtime(ptr noundef %6, ptr noundef %13)
  %15 = icmp ne ptr %14, null
  br i1 %15, label %16, label %17

16:                                               ; preds = %10
  store i32 1, ptr %3, align 4
  store i32 1, ptr %7, align 4
  br label %18

17:                                               ; preds = %10
  store i32 0, ptr %3, align 4
  store i32 1, ptr %7, align 4
  br label %18

18:                                               ; preds = %17, %16
  call void @llvm.lifetime.end.p0(i64 8, ptr %6) #7
  br label %23

19:                                               ; preds = %2
  %20 = load ptr, ptr %5, align 8, !tbaa !15
  %21 = load ptr, ptr %4, align 8, !tbaa !13
  %22 = call i32 @ossl_asn1_time_to_tm(ptr noundef %20, ptr noundef %21)
  store i32 %22, ptr %3, align 4
  br label %23

23:                                               ; preds = %19, %18
  %24 = load i32, ptr %3, align 4
  ret i32 %24
}

; Function Attrs: nounwind uwtable
define dso_local i32 @ASN1_TIME_diff(ptr noundef %0, ptr noundef %1, ptr noundef %2, ptr noundef %3) #0 {
  %5 = alloca i32, align 4
  %6 = alloca ptr, align 8
  %7 = alloca ptr, align 8
  %8 = alloca ptr, align 8
  %9 = alloca ptr, align 8
  %10 = alloca %struct.tm, align 8
  %11 = alloca %struct.tm, align 8
  %12 = alloca i32, align 4
  store ptr %0, ptr %6, align 8, !tbaa !41
  store ptr %1, ptr %7, align 8, !tbaa !41
  store ptr %2, ptr %8, align 8, !tbaa !13
  store ptr %3, ptr %9, align 8, !tbaa !13
  call void @llvm.lifetime.start.p0(i64 56, ptr %10) #7
  call void @llvm.lifetime.start.p0(i64 56, ptr %11) #7
  %13 = load ptr, ptr %8, align 8, !tbaa !13
  %14 = call i32 @ASN1_TIME_to_tm(ptr noundef %13, ptr noundef %10)
  %15 = icmp ne i32 %14, 0
  br i1 %15, label %17, label %16

16:                                               ; preds = %4
  store i32 0, ptr %5, align 4
  store i32 1, ptr %12, align 4
  br label %26

17:                                               ; preds = %4
  %18 = load ptr, ptr %9, align 8, !tbaa !13
  %19 = call i32 @ASN1_TIME_to_tm(ptr noundef %18, ptr noundef %11)
  %20 = icmp ne i32 %19, 0
  br i1 %20, label %22, label %21

21:                                               ; preds = %17
  store i32 0, ptr %5, align 4
  store i32 1, ptr %12, align 4
  br label %26

22:                                               ; preds = %17
  %23 = load ptr, ptr %6, align 8, !tbaa !41
  %24 = load ptr, ptr %7, align 8, !tbaa !41
  %25 = call i32 @OPENSSL_gmtime_diff(ptr noundef %23, ptr noundef %24, ptr noundef %10, ptr noundef %11)
  store i32 %25, ptr %5, align 4
  store i32 1, ptr %12, align 4
  br label %26

26:                                               ; preds = %22, %21, %16
  call void @llvm.lifetime.end.p0(i64 56, ptr %11) #7
  call void @llvm.lifetime.end.p0(i64 56, ptr %10) #7
  %27 = load i32, ptr %5, align 4
  ret i32 %27
}