; Function Attrs: nounwind uwtable
define dso_local i32 @ASN1_TIME_diff(ptr noundef %0, ptr noundef %1, ptr noundef readonly captures(address_is_null) %2, ptr noundef readonly captures(address_is_null) %3) local_unnamed_addr #1 {
  %5 = alloca i64, align 8
  %6 = alloca i64, align 8
  %7 = alloca %struct.tm, align 8
  %8 = alloca %struct.tm, align 8
  call void @llvm.lifetime.start.p0(i64 56, ptr nonnull %7) #8
  call void @llvm.lifetime.start.p0(i64 56, ptr nonnull %8) #8
  %9 = icmp eq ptr %2, null
  br i1 %9, label %10, label %ASN1_TIME_to_tm.exit

10:                                               ; preds = %4
  call void @llvm.lifetime.start.p0(i64 8, ptr nonnull %6) #8
  %11 = call i64 @time(ptr noundef nonnull %6) #8
  call void @llvm.memset.p0.i64(ptr noundef nonnull align 8 dereferenceable(56) %7, i8 0, i64 56, i1 false)
  %12 = call ptr @OPENSSL_gmtime(ptr noundef nonnull %6, ptr noundef nonnull %7) #8
  %.not.i.not = icmp eq ptr %12, null
  call void @llvm.lifetime.end.p0(i64 8, ptr nonnull %6) #8
  br i1 %.not.i.not, label %24, label %15

ASN1_TIME_to_tm.exit:                             ; preds = %4
  %13 = call i32 @ossl_asn1_time_to_tm(ptr noundef nonnull %7, ptr noundef nonnull readonly %2)
  %14 = icmp eq i32 %13, 0
  br i1 %14, label %24, label %15

15:                                               ; preds = %10, %ASN1_TIME_to_tm.exit
  %16 = icmp eq ptr %3, null
  br i1 %16, label %17, label %ASN1_TIME_to_tm.exit8

17:                                               ; preds = %15
  call void @llvm.lifetime.start.p0(i64 8, ptr nonnull %5) #8
  %18 = call i64 @time(ptr noundef nonnull %5) #8
  call void @llvm.memset.p0.i64(ptr noundef nonnull align 8 dereferenceable(56) %8, i8 0, i64 56, i1 false)
  %19 = call ptr @OPENSSL_gmtime(ptr noundef nonnull %5, ptr noundef nonnull %8) #8
  %.not.i6.not = icmp eq ptr %19, null
  call void @llvm.lifetime.end.p0(i64 8, ptr nonnull %5) #8
  br i1 %.not.i6.not, label %24, label %22

ASN1_TIME_to_tm.exit8:                            ; preds = %15
  %20 = call i32 @ossl_asn1_time_to_tm(ptr noundef nonnull %8, ptr noundef nonnull readonly %3)
  %21 = icmp eq i32 %20, 0
  br i1 %21, label %24, label %22

22:                                               ; preds = %17, %ASN1_TIME_to_tm.exit8
  %23 = call i32 @OPENSSL_gmtime_diff(ptr noundef %0, ptr noundef %1, ptr noundef nonnull %7, ptr noundef nonnull %8) #8
  br label %24

24:                                               ; preds = %17, %10, %ASN1_TIME_to_tm.exit8, %ASN1_TIME_to_tm.exit, %22
  %.0 = phi i32 [ %23, %22 ], [ 0, %ASN1_TIME_to_tm.exit ], [ 0, %ASN1_TIME_to_tm.exit8 ], [ 0, %10 ], [ 0, %17 ]
  call void @llvm.lifetime.end.p0(i64 56, ptr nonnull %8) #8
  call void @llvm.lifetime.end.p0(i64 56, ptr nonnull %7) #8
  ret i32 %.0
}